target datalayout = "e-m:e-p270:32:32-p271:32:32-p272:64:64-i64:64-i128:128-f80:128-n8:16:32:64-S128"
target triple = "x86_64-pc-linux-gnu"

%struct.cpu_set_t = type { [16 x i64] }

@.str.232 = private unnamed_addr constant [30 x i8] c"sysconf(_SC_NPROCESSORS_ONLN)\00", align 1

; Function Attrs: inlinehint nounwind sspstrong willreturn memory(none) uwtable
define internal i64 @RB_INT2FIX(i64 noundef %0) #5 {
  %2 = alloca i64, align 8
  %3 = alloca i64, align 8
  %4 = alloca i64, align 8
  %5 = alloca i64, align 8
  %6 = alloca i64, align 8
  %7 = alloca i64, align 8
  store i64 %0, ptr %2, align 8, !tbaa !6
  call void @llvm.lifetime.start.p0(i64 8, ptr %3) #19
  %8 = load i64, ptr %2, align 8, !tbaa !6
  store i64 %8, ptr %3, align 8, !tbaa !6
  call void @llvm.lifetime.start.p0(i64 8, ptr %4) #19
  %9 = load i64, ptr %3, align 8, !tbaa !6
  %10 = shl i64 %9, 1
  %11 = add i64 %10, 1
  store i64 %11, ptr %4, align 8, !tbaa !6
  call void @llvm.lifetime.start.p0(i64 8, ptr %5) #19
  %12 = load i64, ptr %4, align 8, !tbaa !6
  store i64 %12, ptr %5, align 8, !tbaa !6
  call void @llvm.lifetime.start.p0(i64 8, ptr %6) #19
  %13 = load i64, ptr %5, align 8, !tbaa !6
  store i64 %13, ptr %6, align 8, !tbaa !6
  call void @llvm.lifetime.start.p0(i64 8, ptr %7) #19
  %14 = load i64, ptr %6, align 8, !tbaa !6
  store i64 %14, ptr %7, align 8, !tbaa !6
  %15 = load i64, ptr %7, align 8, !tbaa !6
  call void @llvm.lifetime.end.p0(i64 8, ptr %7) #19
  call void @llvm.lifetime.end.p0(i64 8, ptr %6) #19
  call void @llvm.lifetime.end.p0(i64 8, ptr %5) #19
  call void @llvm.lifetime.end.p0(i64 8, ptr %4) #19
  call void @llvm.lifetime.end.p0(i64 8, ptr %3) #19
  ret i64 %15
}

; Function Attrs: inlinehint nounwind sspstrong uwtable
define internal i64 @rb_long2num_inline(i64 noundef %0) #3 {
  %2 = alloca i64, align 8
  %3 = alloca i64, align 8
  store i64 %0, ptr %3, align 8, !tbaa !6
  %4 = load i64, ptr %3, align 8, !tbaa !6
  %5 = icmp slt i64 %4, 4611686018427387904
  br i1 %5, label %6, label %12

6:                                                ; preds = %1
  %7 = load i64, ptr %3, align 8, !tbaa !6
  %8 = icmp sge i64 %7, -4611686018427387904
  br i1 %8, label %9, label %12

9:                                                ; preds = %6
  %10 = load i64, ptr %3, align 8, !tbaa !6
  %11 = call i64 @RB_INT2FIX(i64 noundef %10) #20
  store i64 %11, ptr %2, align 8
  br label %15

12:                                               ; preds = %6, %1
  %13 = load i64, ptr %3, align 8, !tbaa !6
  %14 = call i64 @rb_int2big(i64 noundef %13)
  store i64 %14, ptr %2, align 8
  br label %15

15:                                               ; preds = %12, %9
  %16 = load i64, ptr %2, align 8
  ret i64 %16
}

; Function Attrs: inlinehint nounwind sspstrong uwtable
define internal i64 @rb_int2num_inline(i32 noundef %0) #3 {
  %2 = alloca i64, align 8
  %3 = alloca i32, align 4
  store i32 %0, ptr %3, align 4, !tbaa !15
  %4 = load i32, ptr %3, align 4, !tbaa !15
  %5 = sext i32 %4 to i64
  %6 = icmp slt i64 %5, 4611686018427387904
  br i1 %6, label %7, label %15

7:                                                ; preds = %1
  %8 = load i32, ptr %3, align 4, !tbaa !15
  %9 = sext i32 %8 to i64
  %10 = icmp sge i64 %9, -4611686018427387904
  br i1 %10, label %11, label %15

11:                                               ; preds = %7
  %12 = load i32, ptr %3, align 4, !tbaa !15
  %13 = sext i32 %12 to i64
  %14 = call i64 @RB_INT2FIX(i64 noundef %13) #20
  store i64 %14, ptr %2, align 8
  br label %19

15:                                               ; preds = %7, %1
  %16 = load i32, ptr %3, align 4, !tbaa !15
  %17 = sext i32 %16 to i64
  %18 = call i64 @rb_int2big(i64 noundef %17)
  store i64 %18, ptr %2, align 8
  br label %19

19:                                               ; preds = %15, %11
  %20 = load i64, ptr %2, align 8
  ret i64 %20
}

; Function Attrs: nounwind sspstrong uwtable
define internal i32 @etc_nprocessors_affin() #0 {
  %1 = alloca i32, align 4
  %2 = alloca ptr, align 8
  %3 = alloca [8 x %struct.cpu_set_t], align 16
  %4 = alloca i64, align 8
  %5 = alloca i32, align 4
  %6 = alloca i32, align 4
  %7 = alloca i32, align 4
  call void @llvm.lifetime.start.p0(i64 8, ptr %2) #19
  call void @llvm.lifetime.start.p0(i64 1024, ptr %3) #19
  call void @llvm.lifetime.start.p0(i64 8, ptr %4) #19
  call void @llvm.lifetime.start.p0(i64 4, ptr %5) #19
  call void @llvm.lifetime.start.p0(i64 4, ptr %6) #19
  br label %8

8:                                                ; preds = %0
  %9 = getelementptr inbounds [8 x %struct.cpu_set_t], ptr %3, i64 0, i64 0
  call void @llvm.memset.p0.i64(ptr align 16 %9, i8 0, i64 1024, i1 false)
  br label %10

10:                                               ; preds = %8
  br label %11

11:                                               ; preds = %10
  store i32 64, ptr %6, align 4, !tbaa !15
  br label %12

12:                                               ; preds = %58, %11
  %13 = load i32, ptr %6, align 4, !tbaa !15
  %14 = icmp sle i32 %13, 16384
  br i1 %14, label %15, label %61

15:                                               ; preds = %12
  %16 = load i32, ptr %6, align 4, !tbaa !15
  %17 = sext i32 %16 to i64
  %18 = add i64 %17, 64
  %19 = sub i64 %18, 1
  %20 = udiv i64 %19, 64
  %21 = mul i64 %20, 8
  store i64 %21, ptr %4, align 8, !tbaa !6
  %22 = load i64, ptr %4, align 8, !tbaa !6
  %23 = icmp uge i64 %22, 1024
  br i1 %23, label %24, label %31

24:                                               ; preds = %15
  %25 = load i64, ptr %4, align 8, !tbaa !6
  %26 = call noalias nonnull ptr @ruby_xcalloc(i64 noundef 1, i64 noundef %25) #26
  store ptr %26, ptr %2, align 8, !tbaa !59
  %27 = load ptr, ptr %2, align 8, !tbaa !59
  %28 = icmp ne ptr %27, null
  br i1 %28, label %30, label %29

29:                                               ; preds = %24
  store i32 -1, ptr %1, align 4
  store i32 1, ptr %7, align 4
  br label %63

30:                                               ; preds = %24
  br label %33

31:                                               ; preds = %15
  %32 = getelementptr inbounds [8 x %struct.cpu_set_t], ptr %3, i64 0, i64 0
  store ptr %32, ptr %2, align 8, !tbaa !59
  br label %33

33:                                               ; preds = %31, %30
  %34 = load i64, ptr %4, align 8, !tbaa !6
  %35 = load ptr, ptr %2, align 8, !tbaa !59
  %36 = call i32 @sched_getaffinity(i32 noundef 0, i64 noundef %34, ptr noundef %35) #19
  store i32 %36, ptr %5, align 4, !tbaa !15
  %37 = load i32, ptr %5, align 4, !tbaa !15
  %38 = icmp eq i32 %37, 0
  br i1 %38, label %39, label %43

39:                                               ; preds = %33
  %40 = load i64, ptr %4, align 8, !tbaa !6
  %41 = load ptr, ptr %2, align 8, !tbaa !59
  %42 = call i32 @__sched_cpucount(i64 noundef %40, ptr noundef %41) #19
  store i32 %42, ptr %5, align 4, !tbaa !15
  br label %43

43:                                               ; preds = %39, %33
  %44 = load i64, ptr %4, align 8, !tbaa !6
  %45 = icmp uge i64 %44, 1024
  br i1 %45, label %46, label %48

46:                                               ; preds = %43
  %47 = load ptr, ptr %2, align 8, !tbaa !59
  call void @ruby_xfree(ptr noundef %47)
  br label %48

48:                                               ; preds = %46, %43
  %49 = load i32, ptr %5, align 4, !tbaa !15
  %50 = icmp sgt i32 %49, 0
  br i1 %50, label %55, label %51

51:                                               ; preds = %48
  %52 = call ptr @rb_errno_ptr()
  %53 = load i32, ptr %52, align 4, !tbaa !15
  %54 = icmp ne i32 %53, 22
  br i1 %54, label %55, label %57

55:                                               ; preds = %51, %48
  %56 = load i32, ptr %5, align 4, !tbaa !15
  store i32 %56, ptr %1, align 4
  store i32 1, ptr %7, align 4
  br label %63

57:                                               ; preds = %51
  br label %58

58:                                               ; preds = %57
  %59 = load i32, ptr %6, align 4, !tbaa !15
  %60 = mul nsw i32 %59, 2
  store i32 %60, ptr %6, align 4, !tbaa !15
  br label %12, !llvm.loop !60

61:                                               ; preds = %12
  %62 = load i32, ptr %5, align 4, !tbaa !15
  store i32 %62, ptr %1, align 4
  store i32 1, ptr %7, align 4
  br label %63

63:                                               ; preds = %61, %55, %29
  call void @llvm.lifetime.end.p0(i64 4, ptr %6) #19
  call void @llvm.lifetime.end.p0(i64 4, ptr %5) #19
  call void @llvm.lifetime.end.p0(i64 8, ptr %4) #19
  call void @llvm.lifetime.end.p0(i64 1024, ptr %3) #19
  call void @llvm.lifetime.end.p0(i64 8, ptr %2) #19
  %64 = load i32, ptr %1, align 4
  ret i32 %64
}

; Function Attrs: nounwind sspstrong uwtable
define internal i64 @etc_nprocessors(i64 noundef %0) #0 {
  %2 = alloca i64, align 8
  %3 = alloca i64, align 8
  %4 = alloca i64, align 8
  %5 = alloca i32, align 4
  %6 = alloca i32, align 4
  store i64 %0, ptr %3, align 8, !tbaa !6
  call void @llvm.lifetime.start.p0(i64 8, ptr %4) #19
  call void @llvm.lifetime.start.p0(i64 4, ptr %5) #19
  %7 = call i32 @etc_nprocessors_affin()
  store i32 %7, ptr %5, align 4, !tbaa !15
  %8 = load i32, ptr %5, align 4, !tbaa !15
  %9 = icmp ne i32 %8, -1
  br i1 %9, label %10, label %13

10:                                               ; preds = %1
  %11 = load i32, ptr %5, align 4, !tbaa !15
  %12 = call i64 @rb_int2num_inline(i32 noundef %11)
  store i64 %12, ptr %2, align 8
  store i32 1, ptr %6, align 4
  br label %22

13:                                               ; preds = %1
  %14 = call ptr @rb_errno_ptr()
  store i32 0, ptr %14, align 4, !tbaa !15
  %15 = call i64 @sysconf(i32 noundef 84) #19
  store i64 %15, ptr %4, align 8, !tbaa !6
  %16 = load i64, ptr %4, align 8, !tbaa !6
  %17 = icmp eq i64 %16, -1
  br i1 %17, label %18, label %19

18:                                               ; preds = %13
  call void @rb_sys_fail(ptr noundef @.str.232) #22
  unreachable

19:                                               ; preds = %13
  %20 = load i64, ptr %4, align 8, !tbaa !6
  %21 = call i64 @rb_long2num_inline(i64 noundef %20)
  store i64 %21, ptr %2, align 8
  store i32 1, ptr %6, align 4
  br label %22

22:                                               ; preds = %19, %10
  call void @llvm.lifetime.end.p0(i64 4, ptr %5) #19
  call void @llvm.lifetime.end.p0(i64 8, ptr %4) #19
  %23 = load i64, ptr %2, align 8
  ret i64 %23
}