; Function Attrs: nounwind sspstrong uwtable
define internal i64 @etc_nprocessors(i64 %0) #0 {
  %2 = alloca [8 x %struct.cpu_set_t], align 16
  call void @llvm.lifetime.start.p0(i64 1024, ptr nonnull %2) #13
  call void @llvm.memset.p0.i64(ptr noundef nonnull align 16 dereferenceable(1024) %2, i8 0, i64 1024, i1 false)
  br label %3

3:                                                ; preds = %18, %1
  %.021.i = phi i32 [ 64, %1 ], [ %21, %18 ]
  %4 = lshr exact i32 %.021.i, 3
  %5 = zext nneg i32 %4 to i64
  %6 = icmp samesign ugt i32 %.021.i, 8184
  br i1 %6, label %7, label %9

7:                                                ; preds = %3
  %8 = call noalias nonnull ptr @ruby_xcalloc(i64 noundef 1, i64 noundef %5) #18
  br label %9

9:                                                ; preds = %7, %3
  %.018.i = phi ptr [ %8, %7 ], [ %2, %3 ]
  %10 = call i32 @sched_getaffinity(i32 noundef 0, i64 noundef %5, ptr noundef nonnull %.018.i) #13
  %11 = icmp eq i32 %10, 0
  br i1 %11, label %12, label %14

12:                                               ; preds = %9
  %13 = call i32 @__sched_cpucount(i64 noundef %5, ptr noundef nonnull %.018.i) #13
  br label %14

14:                                               ; preds = %12, %9
  %.1.i = phi i32 [ %13, %12 ], [ %10, %9 ]
  br i1 %6, label %15, label %16

15:                                               ; preds = %14
  call void @ruby_xfree(ptr noundef nonnull %.018.i) #13
  br label %16

16:                                               ; preds = %15, %14
  %17 = icmp sgt i32 %.1.i, 0
  br i1 %17, label %etc_nprocessors_affin.exit.thread, label %18

etc_nprocessors_affin.exit.thread:                ; preds = %16
  call void @llvm.lifetime.end.p0(i64 1024, ptr nonnull %2) #13
  br label %23

18:                                               ; preds = %16
  %19 = call ptr @rb_errno_ptr() #13
  %20 = load i32, ptr %19, align 4, !tbaa !21
  %.not.i = icmp eq i32 %20, 22
  %21 = shl nuw nsw i32 %.021.i, 1
  %22 = icmp ult i32 %.021.i, 8193
  %or.cond.i = and i1 %22, %.not.i
  br i1 %or.cond.i, label %3, label %etc_nprocessors_affin.exit, !llvm.loop !22

etc_nprocessors_affin.exit:                       ; preds = %18
  call void @llvm.lifetime.end.p0(i64 1024, ptr nonnull %2) #13
  %.not = icmp eq i32 %.1.i, -1
  br i1 %.not, label %27, label %23

23:                                               ; preds = %etc_nprocessors_affin.exit.thread, %etc_nprocessors_affin.exit
  %24 = sext i32 %.1.i to i64
  %25 = shl nsw i64 %24, 1
  %26 = or disjoint i64 %25, 1
  br label %rb_long2num_inline.exit

27:                                               ; preds = %etc_nprocessors_affin.exit
  %28 = call ptr @rb_errno_ptr() #13
  store i32 0, ptr %28, align 4, !tbaa !21
  %29 = call i64 @sysconf(i32 noundef 84) #13
  %30 = icmp eq i64 %29, -1
  br i1 %30, label %31, label %32

31:                                               ; preds = %27
  call void @rb_sys_fail(ptr noundef nonnull @.str.232) #15
  unreachable

32:                                               ; preds = %27
  %33 = add i64 %29, 4611686018427387904
  %or.cond.i7 = icmp sgt i64 %33, -1
  br i1 %or.cond.i7, label %34, label %37

34:                                               ; preds = %32
  %35 = shl nsw i64 %29, 1
  %36 = or disjoint i64 %35, 1
  br label %rb_long2num_inline.exit

37:                                               ; preds = %32
  %38 = call i64 @rb_int2big(i64 noundef range(i64 0, -1) %29) #13
  br label %rb_long2num_inline.exit

rb_long2num_inline.exit:                          ; preds = %37, %34, %23
  %.0 = phi i64 [ %26, %23 ], [ %36, %34 ], [ %38, %37 ]
  ret i64 %.0
}